#include <math.h>
#include <stdio.h>
#include <stdlib.h>
#include <string.h>

int main()
{
	int a[15],i,j,m,k,b,n;
	for(n=0;;n++){
	for(i=0;i<17;i++){
		scanf("%d",&m);
		if(m==0)break;
		if(m<0)goto er;
		a[i]=m;
	}
	k=i;
	b=0;
	for(i=0;i<k;i++){
		for(j=i+1;j<k;j++){
			if((a[i]==2*a[j])||(a[j]==2*a[i]))
				b=b+1;
		}
	}
	printf("%d\n",b);
	}
er:return 0;
}
